target datalayout = "e-m:e-p270:32:32-p271:32:32-p272:64:64-i64:64-i128:128-f80:128-n8:16:32:64-S128"
target triple = "x86_64-pc-linux-gnu"

%struct.expert_field = type { i32, i32 }

@hf_ansi_801_rev_req_loc_height_information = internal global i32 0, align 4
@hf_ansi_801_rev_req_loc_clock_correction_for_gps_time = internal global i32 0, align 4
@hf_ansi_801_rev_req_loc_velocity_information = internal global i32 0, align 4
@hf_ansi_801_reserved8_1F = internal global i32 0, align 4
@ei_ansi_801_extraneous_data = internal global %struct.expert_field zeroinitializer, align 4
@ei_ansi_801_short_data = internal global %struct.expert_field zeroinitializer, align 4

; Function Attrs: null_pointer_is_valid sspstrong uwtable
define internal void @rev_req_loc_response(ptr noundef %0, ptr noundef %1, ptr noundef %2, i32 noundef %3, i32 noundef %4) #0 {
  %6 = alloca ptr, align 8
  %7 = alloca ptr, align 8
  %8 = alloca ptr, align 8
  %9 = alloca i32, align 4
  %10 = alloca i32, align 4
  %11 = alloca i32, align 4
  %12 = alloca i32, align 4
  store ptr %0, ptr %6, align 8
  store ptr %1, ptr %7, align 8
  store ptr %2, ptr %8, align 8
  store i32 %3, ptr %9, align 4
  store i32 %4, ptr %10, align 4
  call void @llvm.lifetime.start.p0(i64 4, ptr %11) #6
  %13 = load i32, ptr %9, align 4
  %14 = icmp ult i32 %13, 1
  br i1 %14, label %15, label %22

15:                                               ; preds = %5
  %16 = load ptr, ptr %8, align 8
  %17 = load ptr, ptr %7, align 8
  %18 = load ptr, ptr %6, align 8
  %19 = load i32, ptr %10, align 4
  %20 = load i32, ptr %9, align 4
  %21 = call ptr @proto_tree_add_expert(ptr noundef %16, ptr noundef %17, ptr noundef @ei_ansi_801_short_data, ptr noundef %18, i32 noundef %19, i32 noundef %20)
  store i32 1, ptr %12, align 4
  br label %63

22:                                               ; preds = %5
  %23 = load i32, ptr %10, align 4
  store i32 %23, ptr %11, align 4
  %24 = load ptr, ptr %8, align 8
  %25 = load i32, ptr @hf_ansi_801_rev_req_loc_height_information, align 4
  %26 = load ptr, ptr %6, align 8
  %27 = load i32, ptr %10, align 4
  %28 = call ptr @proto_tree_add_item(ptr noundef %24, i32 noundef %25, ptr noundef %26, i32 noundef %27, i32 noundef 1, i32 noundef 0)
  %29 = load ptr, ptr %8, align 8
  %30 = load i32, ptr @hf_ansi_801_rev_req_loc_clock_correction_for_gps_time, align 4
  %31 = load ptr, ptr %6, align 8
  %32 = load i32, ptr %10, align 4
  %33 = call ptr @proto_tree_add_item(ptr noundef %29, i32 noundef %30, ptr noundef %31, i32 noundef %32, i32 noundef 1, i32 noundef 0)
  %34 = load ptr, ptr %8, align 8
  %35 = load i32, ptr @hf_ansi_801_rev_req_loc_velocity_information, align 4
  %36 = load ptr, ptr %6, align 8
  %37 = load i32, ptr %10, align 4
  %38 = call ptr @proto_tree_add_item(ptr noundef %34, i32 noundef %35, ptr noundef %36, i32 noundef %37, i32 noundef 1, i32 noundef 0)
  %39 = load ptr, ptr %8, align 8
  %40 = load i32, ptr @hf_ansi_801_reserved8_1F, align 4
  %41 = load ptr, ptr %6, align 8
  %42 = load i32, ptr %10, align 4
  %43 = call ptr @proto_tree_add_item(ptr noundef %39, i32 noundef %40, ptr noundef %41, i32 noundef %42, i32 noundef 1, i32 noundef 0)
  %44 = load i32, ptr %10, align 4
  %45 = add i32 %44, 1
  store i32 %45, ptr %10, align 4
  %46 = load i32, ptr %9, align 4
  %47 = load i32, ptr %10, align 4
  %48 = load i32, ptr %11, align 4
  %49 = sub i32 %47, %48
  %50 = icmp ugt i32 %46, %49
  br i1 %50, label %51, label %62

51:                                               ; preds = %22
  %52 = load ptr, ptr %8, align 8
  %53 = load ptr, ptr %7, align 8
  %54 = load ptr, ptr %6, align 8
  %55 = load i32, ptr %10, align 4
  %56 = load i32, ptr %9, align 4
  %57 = load i32, ptr %10, align 4
  %58 = load i32, ptr %11, align 4
  %59 = sub i32 %57, %58
  %60 = sub i32 %56, %59
  %61 = call ptr @proto_tree_add_expert(ptr noundef %52, ptr noundef %53, ptr noundef @ei_ansi_801_extraneous_data, ptr noundef %54, i32 noundef %55, i32 noundef %60)
  br label %62

62:                                               ; preds = %51, %22
  store i32 0, ptr %12, align 4
  br label %63

63:                                               ; preds = %62, %15
  call void @llvm.lifetime.end.p0(i64 4, ptr %11) #6
  %64 = load i32, ptr %12, align 4
  switch i32 %64, label %66 [
    i32 0, label %65
    i32 1, label %65
  ]

65:                                               ; preds = %63, %63
  ret void

66:                                               ; preds = %63
  unreachable
}