; Function Attrs: null_pointer_is_valid sspstrong uwtable
define internal void @rev_req_loc_response(ptr noundef %0, ptr noundef %1, ptr noundef %2, i32 noundef %3, i32 noundef %4) #0 {
  %6 = icmp eq i32 %3, 0
  br i1 %6, label %7, label %9

7:                                                ; preds = %5
  %8 = tail call ptr @proto_tree_add_expert(ptr noundef %2, ptr noundef %1, ptr noundef nonnull @ei_ansi_801_short_data, ptr noundef %0, i32 noundef %4, i32 noundef 0)
  br label %22

9:                                                ; preds = %5
  %10 = load i32, ptr @hf_ansi_801_rev_req_loc_height_information, align 4
  %11 = tail call ptr @proto_tree_add_item(ptr noundef %2, i32 noundef %10, ptr noundef %0, i32 noundef %4, i32 noundef 1, i32 noundef 0)
  %12 = load i32, ptr @hf_ansi_801_rev_req_loc_clock_correction_for_gps_time, align 4
  %13 = tail call ptr @proto_tree_add_item(ptr noundef %2, i32 noundef %12, ptr noundef %0, i32 noundef %4, i32 noundef 1, i32 noundef 0)
  %14 = load i32, ptr @hf_ansi_801_rev_req_loc_velocity_information, align 4
  %15 = tail call ptr @proto_tree_add_item(ptr noundef %2, i32 noundef %14, ptr noundef %0, i32 noundef %4, i32 noundef 1, i32 noundef 0)
  %16 = load i32, ptr @hf_ansi_801_reserved8_1F, align 4
  %17 = tail call ptr @proto_tree_add_item(ptr noundef %2, i32 noundef %16, ptr noundef %0, i32 noundef %4, i32 noundef 1, i32 noundef 0)
  %.not = icmp eq i32 %3, 1
  br i1 %.not, label %22, label %18

18:                                               ; preds = %9
  %19 = add i32 %4, 1
  %20 = add i32 %3, -1
  %21 = tail call ptr @proto_tree_add_expert(ptr noundef %2, ptr noundef %1, ptr noundef nonnull @ei_ansi_801_extraneous_data, ptr noundef %0, i32 noundef %19, i32 noundef %20)
  br label %22

22:                                               ; preds = %9, %18, %7
  ret void
}